; Function Attrs: nofree norecurse nosync nounwind memory(readwrite, inaccessiblemem: none) uwtable
define void @Abc_NtkDontCareSimulateSetElem(ptr noundef readonly captures(none) %0) local_unnamed_addr #9 {
  %2 = load i32, ptr %0, align 8, !tbaa !3
  %3 = icmp sgt i32 %2, 0
  br i1 %3, label %.lr.ph, label %._crit_edge

.lr.ph:                                           ; preds = %1
  %4 = getelementptr i8, ptr %0, i64 120
  %.val10 = load ptr, ptr %4, align 8, !tbaa !46
  %5 = getelementptr i8, ptr %.val10, i64 8
  %.val10.val = load ptr, ptr %5, align 8, !tbaa !24
  %6 = getelementptr inbounds nuw i8, ptr %0, i64 128
  %7 = load ptr, ptr %6, align 8, !tbaa !47
  %8 = getelementptr i8, ptr %7, i64 8
  %.val = load ptr, ptr %8, align 8, !tbaa !24
  %9 = getelementptr inbounds nuw i8, ptr %0, i64 116
  %10 = load i32, ptr %9, align 4, !tbaa !42
  %11 = icmp sgt i32 %10, 0
  br i1 %11, label %.lr.ph.split, label %._crit_edge

.lr.ph.split:                                     ; preds = %.lr.ph, %Abc_InfoCopy.exit
  %12 = phi i32 [ %25, %Abc_InfoCopy.exit ], [ %2, %.lr.ph ]
  %indvars.iv = phi i64 [ %indvars.iv.next, %Abc_InfoCopy.exit ], [ 0, %.lr.ph ]
  %indvars.iv.next = add nuw nsw i64 %indvars.iv, 1
  %13 = and i64 %indvars.iv.next, 32767
  %14 = getelementptr inbounds nuw ptr, ptr %.val10.val, i64 %13
  %15 = load ptr, ptr %14, align 8, !tbaa !44
  %16 = getelementptr inbounds nuw ptr, ptr %.val, i64 %indvars.iv
  %17 = load ptr, ptr %16, align 8, !tbaa !44
  %18 = load i32, ptr %9, align 4, !tbaa !42
  %19 = icmp sgt i32 %18, 0
  br i1 %19, label %.lr.ph.preheader.i, label %Abc_InfoCopy.exit

.lr.ph.preheader.i:                               ; preds = %.lr.ph.split
  %20 = zext nneg i32 %18 to i64
  br label %.lr.ph.i

.lr.ph.i:                                         ; preds = %.lr.ph.i, %.lr.ph.preheader.i
  %indvars.iv.i = phi i64 [ %20, %.lr.ph.preheader.i ], [ %indvars.iv.next.i, %.lr.ph.i ]
  %indvars.iv.next.i = add nsw i64 %indvars.iv.i, -1
  %21 = getelementptr inbounds nuw i32, ptr %17, i64 %indvars.iv.next.i
  %22 = load i32, ptr %21, align 4, !tbaa !48
  %23 = getelementptr inbounds nuw i32, ptr %15, i64 %indvars.iv.next.i
  store i32 %22, ptr %23, align 4, !tbaa !48
  %24 = icmp samesign ugt i64 %indvars.iv.i, 1
  br i1 %24, label %.lr.ph.i, label %Abc_InfoCopy.exit.loopexit, !llvm.loop !125

Abc_InfoCopy.exit.loopexit:                       ; preds = %.lr.ph.i
  %.pre = load i32, ptr %0, align 8, !tbaa !3
  br label %Abc_InfoCopy.exit

Abc_InfoCopy.exit:                                ; preds = %Abc_InfoCopy.exit.loopexit, %.lr.ph.split
  %25 = phi i32 [ %.pre, %Abc_InfoCopy.exit.loopexit ], [ %12, %.lr.ph.split ]
  %26 = sext i32 %25 to i64
  %27 = icmp slt i64 %indvars.iv.next, %26
  br i1 %27, label %.lr.ph.split, label %._crit_edge, !llvm.loop !126

._crit_edge:                                      ; preds = %Abc_InfoCopy.exit, %.lr.ph, %1
  ret void
}